target datalayout = "e-m:e-p270:32:32-p271:32:32-p272:64:64-i64:64-i128:128-f80:128-n8:16:32:64-S128"
target triple = "x86_64-pc-linux-gnu"

%struct._ext_toolbar_update_t = type { i32, i32, ptr, ptr }

; Function Attrs: mustprogress uwtable
define internal void @_ZL18toolbar_boolean_cbPvS_S_(ptr noundef %0, ptr noundef %1, ptr noundef %2) #0 {
  %4 = alloca ptr, align 8
  %5 = alloca ptr, align 8
  %6 = alloca ptr, align 8
  %7 = alloca ptr, align 8
  %8 = alloca ptr, align 8
  %9 = alloca i8, align 1
  %10 = alloca i8, align 1
  store ptr %0, ptr %4, align 8
  store ptr %1, ptr %5, align 8
  store ptr %2, ptr %6, align 8
  %11 = load ptr, ptr %4, align 8
  %12 = icmp ne ptr %11, null
  br i1 %12, label %13, label %19

13:                                               ; preds = %3
  %14 = load ptr, ptr %5, align 8
  %15 = icmp ne ptr %14, null
  br i1 %15, label %16, label %19

16:                                               ; preds = %13
  %17 = load ptr, ptr %6, align 8
  %18 = icmp ne ptr %17, null
  br i1 %18, label %20, label %19

19:                                               ; preds = %16, %13, %3
  br label %72

20:                                               ; preds = %16
  %21 = load ptr, ptr %5, align 8
  store ptr %21, ptr %7, align 8
  %22 = load ptr, ptr %6, align 8
  store ptr %22, ptr %8, align 8
  %23 = load ptr, ptr %8, align 8
  %24 = getelementptr inbounds %struct._ext_toolbar_update_t, ptr %23, i32 0, i32 0
  %25 = load i32, ptr %24, align 8
  %26 = icmp eq i32 %25, 0
  br i1 %26, label %27, label %55

27:                                               ; preds = %20
  store i8 0, ptr %9, align 1
  %28 = load ptr, ptr %8, align 8
  %29 = getelementptr inbounds %struct._ext_toolbar_update_t, ptr %28, i32 0, i32 1
  %30 = load i32, ptr %29, align 4
  %31 = icmp ne i32 %30, 0
  br i1 %31, label %32, label %36

32:                                               ; preds = %27
  %33 = load ptr, ptr %7, align 8
  %34 = call noundef zeroext i1 @_ZN7QObject12blockSignalsEb(ptr noundef nonnull align 8 dereferenceable(16) %33, i1 noundef zeroext true) #15
  %35 = zext i1 %34 to i8
  store i8 %35, ptr %9, align 1
  br label %36

36:                                               ; preds = %32, %27
  %37 = load ptr, ptr %7, align 8
  %38 = load ptr, ptr %8, align 8
  %39 = getelementptr inbounds %struct._ext_toolbar_update_t, ptr %38, i32 0, i32 2
  %40 = load ptr, ptr %39, align 8
  %41 = ptrtoint ptr %40 to i64
  %42 = trunc i64 %41 to i32
  %43 = icmp eq i32 %42, 1
  %44 = select i1 %43, i32 2, i32 0
  call void @_ZN9QCheckBox13setCheckStateEN2Qt10CheckStateE(ptr noundef nonnull align 8 dereferenceable(40) %37, i32 noundef %44)
  %45 = load ptr, ptr %8, align 8
  %46 = getelementptr inbounds %struct._ext_toolbar_update_t, ptr %45, i32 0, i32 1
  %47 = load i32, ptr %46, align 4
  %48 = icmp ne i32 %47, 0
  br i1 %48, label %49, label %54

49:                                               ; preds = %36
  %50 = load ptr, ptr %7, align 8
  %51 = load i8, ptr %9, align 1
  %52 = trunc i8 %51 to i1
  %53 = call noundef zeroext i1 @_ZN7QObject12blockSignalsEb(ptr noundef nonnull align 8 dereferenceable(16) %50, i1 noundef zeroext %52) #15
  br label %54

54:                                               ; preds = %49, %36
  br label %72

55:                                               ; preds = %20
  %56 = load ptr, ptr %8, align 8
  %57 = getelementptr inbounds %struct._ext_toolbar_update_t, ptr %56, i32 0, i32 0
  %58 = load i32, ptr %57, align 8
  %59 = icmp eq i32 %58, 5
  br i1 %59, label %60, label %71

60:                                               ; preds = %55
  %61 = load ptr, ptr %8, align 8
  %62 = getelementptr inbounds %struct._ext_toolbar_update_t, ptr %61, i32 0, i32 2
  %63 = load ptr, ptr %62, align 8
  %64 = ptrtoint ptr %63 to i64
  %65 = trunc i64 %64 to i32
  %66 = icmp eq i32 %65, 1
  %67 = zext i1 %66 to i8
  store i8 %67, ptr %10, align 1
  %68 = load ptr, ptr %7, align 8
  %69 = load i8, ptr %10, align 1
  %70 = trunc i8 %69 to i1
  call void @_ZN7QWidget10setEnabledEb(ptr noundef nonnull align 8 dereferenceable(40) %68, i1 noundef zeroext %70)
  br label %71

71:                                               ; preds = %60, %55
  br label %72

72:                                               ; preds = %71, %54, %19
  ret void
}