; Function Attrs: mustprogress uwtable
define internal void @_ZL18toolbar_boolean_cbPvS_S_(ptr noundef readnone %0, ptr noundef %1, ptr noundef readonly %2) #0 {
  %4 = icmp ne ptr %0, null
  %5 = icmp ne ptr %1, null
  %or.cond = and i1 %4, %5
  %6 = icmp ne ptr %2, null
  %or.cond3 = and i1 %or.cond, %6
  br i1 %or.cond3, label %7, label %30

7:                                                ; preds = %3
  %8 = load i32, ptr %2, align 8
  switch i32 %8, label %30 [
    i32 0, label %9
    i32 5, label %24
  ]

9:                                                ; preds = %7
  %10 = getelementptr inbounds i8, ptr %2, i64 4
  %11 = load i32, ptr %10, align 4
  %.not = icmp eq i32 %11, 0
  br i1 %.not, label %14, label %12

12:                                               ; preds = %9
  %13 = tail call noundef zeroext i1 @_ZN7QObject12blockSignalsEb(ptr noundef nonnull align 8 dereferenceable(16) %1, i1 noundef zeroext true) #16
  br label %14

14:                                               ; preds = %12, %9
  %.0 = phi i1 [ %13, %12 ], [ false, %9 ]
  %15 = getelementptr inbounds i8, ptr %2, i64 8
  %16 = load ptr, ptr %15, align 8
  %17 = ptrtoint ptr %16 to i64
  %18 = and i64 %17, 4294967295
  %19 = icmp eq i64 %18, 1
  %20 = select i1 %19, i32 2, i32 0
  tail call void @_ZN9QCheckBox13setCheckStateEN2Qt10CheckStateE(ptr noundef nonnull align 8 dereferenceable(40) %1, i32 noundef %20)
  %21 = load i32, ptr %10, align 4
  %.not22 = icmp eq i32 %21, 0
  br i1 %.not22, label %30, label %22

22:                                               ; preds = %14
  %23 = tail call noundef zeroext i1 @_ZN7QObject12blockSignalsEb(ptr noundef nonnull align 8 dereferenceable(16) %1, i1 noundef zeroext %.0) #16
  br label %30

24:                                               ; preds = %7
  %25 = getelementptr inbounds i8, ptr %2, i64 8
  %26 = load ptr, ptr %25, align 8
  %27 = ptrtoint ptr %26 to i64
  %28 = and i64 %27, 4294967295
  %29 = icmp eq i64 %28, 1
  tail call void @_ZN7QWidget10setEnabledEb(ptr noundef nonnull align 8 dereferenceable(40) %1, i1 noundef zeroext %29)
  br label %30

30:                                               ; preds = %7, %24, %14, %22, %3
  ret void
}